; Function Attrs: mustprogress uwtable
define dso_local noundef zeroext i1 @_ZNK16cmCPackGenerator10IsSetToOffERKNSt7__cxx1112basic_stringIcSt11char_traitsIcESaIcEEE(ptr nocapture noundef nonnull readonly align 8 dereferenceable(360) %0, ptr noundef nonnull align 8 dereferenceable(32) %1) local_unnamed_addr #6 align 2 {
  %3 = getelementptr inbounds i8, ptr %0, i64 352
  %4 = load ptr, ptr %3, align 8
  %5 = tail call ptr @_ZNK10cmMakefile13GetDefinitionERKNSt7__cxx1112basic_stringIcSt11char_traitsIcESaIcEEE(ptr noundef nonnull align 8 dereferenceable(3520) %4, ptr noundef nonnull align 8 dereferenceable(32) %1)
  %6 = icmp eq ptr %5, null
  br i1 %6, label %_Z10cmNonempty7cmValue.exit.thread, label %_Z10cmNonempty7cmValue.exit

_Z10cmNonempty7cmValue.exit:                      ; preds = %2
  %7 = tail call noundef zeroext i1 @_ZNKSt7__cxx1112basic_stringIcSt11char_traitsIcESaIcEE5emptyEv(ptr noundef nonnull align 8 dereferenceable(32) %5) #23
  br i1 %7, label %_Z10cmNonempty7cmValue.exit.thread, label %8

8:                                                ; preds = %_Z10cmNonempty7cmValue.exit
  %9 = tail call { i64, ptr } @_ZNKSt7__cxx1112basic_stringIcSt11char_traitsIcESaIcEEcvSt17basic_string_viewIcS2_EEv(ptr noundef nonnull align 8 dereferenceable(32) %5) #23
  %10 = extractvalue { i64, ptr } %9, 0
  %11 = extractvalue { i64, ptr } %9, 1
  %12 = tail call noundef zeroext i1 @_ZN7cmValue5IsOffESt17basic_string_viewIcSt11char_traitsIcEE(i64 %10, ptr %11) #23
  br label %_Z10cmNonempty7cmValue.exit.thread

_Z10cmNonempty7cmValue.exit.thread:               ; preds = %2, %_Z10cmNonempty7cmValue.exit, %8
  %.0 = phi i1 [ %12, %8 ], [ false, %_Z10cmNonempty7cmValue.exit ], [ false, %2 ]
  ret i1 %.0
}